libColPack.so.0:_Z10createArgsiPPKcRSt6vectorINSt7__cxx1112basic_stringIcSt11char_traitsIcESaIcEEESaIS8_EE
libColPack.so.0:_Z10toFileBiPCNSt7__cxx1112basic_stringIcSt11char_traitsIcESaIcEEES4_St6vectorIS4_SaIS4_EES7_St3mapIS4_bSt4lessIS4_ESaISt4pairIKS4_bEEE
libColPack.so.0:_Z11mm_is_validPc
libColPack.so.0:_Z12current_timev
libColPack.so.0:_Z12displayGraphPSt3mapIiS_IibSt4lessIiESaISt4pairIKibEEES1_SaIS2_IS3_S6_EEEPSt6vectorIiSaIiEEii
libColPack.so.0:_Z14GenerateValuesPPjiPPPd
libColPack.so.0:_Z14mm_read_bannerP8_IO_FILEPA4_c
libColPack.so.0:_Z14randomOrderingRSt6vectorIiSaIiEE
libColPack.so.0:_Z15getListOfColorsNSt7__cxx1112basic_stringIcSt11char_traitsIcESaIcEEE
libColPack.so.0:_Z15getListOfGraphsNSt7__cxx1112basic_stringIcSt11char_traitsIcESaIcEEE
libColPack.so.0:_Z15isValidOrderingRSt6vectorIiSaIiEEi
libColPack.so.0:_Z15mm_read_mtx_crdPcPiS0_S0_PS0_S1_PPdPA4_c
libColPack.so.0:_Z15mm_write_bannerP8_IO_FILEPc
libColPack.so.0:_Z16mm_write_mtx_crdPciiiPiS0_PdS_
libColPack.so.0:_Z17Times2Plus1point5PPdii
libColPack.so.0:_Z17buildDotWithColorPSt3mapIiS_IibSt4lessIiESaISt4pairIKibEEES1_SaIS2_IS3_S6_EEEPSt6vectorIiSaIiEERSB_INSt7__cxx1112basic_stringIcSt11char_traitsIcESaIcEEESaISK_EESK_
libColPack.so.0:_Z17buildDotWithColorRN7ColPack22GraphColoringInterfaceERSt6vectorINSt7__cxx1112basic_stringIcSt11char_traitsIcESaIcEEESaIS8_EES8_
libColPack.so.0:_Z17buildDotWithColorRN7ColPack33BipartiteGraphBicoloringInterfaceERSt6vectorINSt7__cxx1112basic_stringIcSt11char_traitsIcESaIcEEESaIS8_EES8_
libColPack.so.0:_Z17buildDotWithColorRN7ColPack38BipartiteGraphPartialColoringInterfaceERSt6vectorINSt7__cxx1112basic_stringIcSt11char_traitsIcESaIcEEESaIS8_EES8_
libColPack.so.0:_Z17printListOfGraphsRSt6vectorINSt7__cxx1112basic_stringIcSt11char_traitsIcESaIcEEESaIS5_EEi
libColPack.so.0:_Z18mm_typecode_to_strPc
libColPack.so.0:_Z20ADICMatricesAreEqualRNSt7__cxx114listISt6vectorIdSaIdEESaIS3_EEES6_bb
libColPack.so.0:_Z20buildDotWithoutColorPSt3mapIiS_IibSt4lessIiESaISt4pairIKibEEES1_SaIS2_IS3_S6_EEERSt6vectorINSt7__cxx1112basic_stringIcSt11char_traitsIcESaIcEEESaISH_EESH_
libColPack.so.0:_Z20buildDotWithoutColorRN7ColPack22GraphColoringInterfaceERSt6vectorINSt7__cxx1112basic_stringIcSt11char_traitsIcESaIcEEESaIS8_EES8_
libColPack.so.0:_Z20buildDotWithoutColorRN7ColPack33BipartiteGraphBicoloringInterfaceERSt6vectorINSt7__cxx1112basic_stringIcSt11char_traitsIcESaIcEEESaIS8_EES8_
libColPack.so.0:_Z20buildDotWithoutColorRN7ColPack38BipartiteGraphPartialColoringInterfaceERSt6vectorINSt7__cxx1112basic_stringIcSt11char_traitsIcESaIcEEESaIS8_EES8_
libColPack.so.0:_Z20mm_read_mtx_crd_dataP8_IO_FILEiiiPiS1_PdPc
libColPack.so.0:_Z20mm_read_mtx_crd_sizeP8_IO_FILEPiS1_S1_
libColPack.so.0:_Z21mm_read_mtx_crd_entryP8_IO_FILEPiS1_PdS2_Pc
libColPack.so.0:_Z21mm_write_mtx_crd_sizeP8_IO_FILEiii
libColPack.so.0:_Z22mm_read_mtx_array_sizeP8_IO_FILEPiS1_
libColPack.so.0:_Z23DisplayADICFormat_ValueRNSt7__cxx114listISt6vectorIdSaIdEESaIS3_EEE
libColPack.so.0:_Z23ReadRowCompressedFormatNSt7__cxx1112basic_stringIcSt11char_traitsIcESaIcEEEPPPjRiS8_
libColPack.so.0:_Z23mm_write_mtx_array_sizeP8_IO_FILEii
libColPack.so.0:_Z23toFileStatisticForGraphNSt7__cxx1112basic_stringIcSt11char_traitsIcESaIcEEES4_St3mapIS4_bSt4lessIS4_ESaISt4pairIKS4_bEEE
libColPack.so.0:_Z24MatrixMultiplication_SxVPPjPPdiiS2_iPS2_
libColPack.so.0:_Z24MatrixMultiplication_VxSPPjPPdiiS2_iPS2_
libColPack.so.0:_Z26ConvertHarwellBoeingDoubleRNSt7__cxx1112basic_stringIcSt11char_traitsIcESaIcEEE
libColPack.so.0:_Z26DisplayADICFormat_SparsityRNSt7__cxx114listISt3setIiSt4lessIiESaIiEESaIS5_EEE
libColPack.so.0:_Z26mm_read_unsymmetric_sparsePKcPiS1_S1_PPdPS1_S4_
libColPack.so.0:_Z28WriteMatrixMarket_ADOLCInputNSt7__cxx1112basic_stringIcSt11char_traitsIcESaIcEEEiz
libColPack.so.0:_Z29CompressedRowMatricesAreEqualPPdS0_ibb
libColPack.so.0:_Z30ConvertRowCompressedFormat2CSRPPjiPPiS2_
libColPack.so.0:_Z31ConvertRowCompressedFormat2ADICPPjiPPdRNSt7__cxx114listISt3setIiSt4lessIiESaIiEESaIS9_EEERNS4_ISt6vectorIdSaIdEESaISF_EEE
libColPack.so.0:_Z32GenerateValuesForSymmetricMatrixPPjiPPPd
libColPack.so.0:_Z32toFileC_forColoringBasedOrderingNSt7__cxx1112basic_stringIcSt11char_traitsIcESaIcEEES4_bb
libColPack.so.0:_Z32toFileStatisticForBipartiteGraphNSt7__cxx1112basic_stringIcSt11char_traitsIcESaIcEEES4_St3mapIS4_bSt4lessIS4_ESaISt4pairIKS4_bEEE
libColPack.so.0:_Z35MatrixDeallocation_CoordinateFormatPPjS0_PPd
libColPack.so.0:_Z38MatrixDeallocation_RowCompressedFormatPPPdj
libColPack.so.0:_Z38MatrixDeallocation_SparseSolversFormatPPjS0_PPd
libColPack.so.0:_Z42ConvertFileDIMACSFormat2MatrixMarketFormatNSt7__cxx1112basic_stringIcSt11char_traitsIcESaIcEEE
libColPack.so.0:_Z43ConvertCoordinateFormat2RowCompressedFormatPjS_PdiiPPS_PPS0_
libColPack.so.0:_Z45ConvertMatrixMarketFormat2RowCompressedFormatNSt7__cxx1112basic_stringIcSt11char_traitsIcESaIcEEEPPPjPPPdRiSB_
libColPack.so.0:_Z4itoaB5cxx11i
libColPack.so.0:_Z50MatrixMultiplication_VxS__usingVertexPartialColorsRNSt7__cxx114listISt3setIiSt4lessIiESaIiEESaIS5_EEERNS0_ISt6vectorIdSaIdEESaISB_EEEiRS9_IiS4_EiPPPd
libColPack.so.0:_Z5Pausev
libColPack.so.0:_Z60ConvertRowCompressedFormat2SparseSolversFormat_StructureOnlyPPjjS0_S0_
libColPack.so.0:_Z6Times2PPdii
libColPack.so.0:_Z7findArgNSt7__cxx1112basic_stringIcSt11char_traitsIcESaIcEEERSt6vectorIS4_SaIS4_EE
libColPack.so.0:_Z7toFileCNSt7__cxx1112basic_stringIcSt11char_traitsIcESaIcEEES4_St6vectorIS4_SaIS4_EES7_St3mapIS4_bSt4lessIS4_ESaISt4pairIKS4_bEEE
libColPack.so.0:_Z7toUpperNSt7__cxx1112basic_stringIcSt11char_traitsIcESaIcEEE
libColPack.so.0:_Z9mm_strdupPKc
libColPack.so.0:_Z9toFileBiCNSt7__cxx1112basic_stringIcSt11char_traitsIcESaIcEEES4_St6vectorIS4_SaIS4_EES7_St3mapIS4_bSt4lessIS4_ESaISt4pairIKS4_bEEE
libColPack.so.0:_ZN7ColPack12DisjointSets11UnionByRankEii
libColPack.so.0:_ZN7ColPack12DisjointSets11UnionBySizeEii
libColPack.so.0:_ZN7ColPack12DisjointSets15FindAndCompressEi
libColPack.so.0:_ZN7ColPack12DisjointSets4FindEi
libColPack.so.0:_ZN7ColPack12DisjointSets5CountEv
libColPack.so.0:_ZN7ColPack12DisjointSets5PrintEv
libColPack.so.0:_ZN7ColPack12DisjointSets5UnionEii
libColPack.so.0:_ZN7ColPack12DisjointSets7SetSizeEi
libColPack.so.0:_ZN7ColPack12DisjointSetsC1Ei
libColPack.so.0:_ZN7ColPack12DisjointSetsC1Ev
libColPack.so.0:_ZN7ColPack12DisjointSetsC2Ei
libColPack.so.0:_ZN7ColPack12DisjointSetsC2Ev
libColPack.so.0:_ZN7ColPack12DisjointSetsD1Ev
libColPack.so.0:_ZN7ColPack12DisjointSetsD2Ev
libColPack.so.0:_ZN7ColPack12RecoveryCore5resetEv
libColPack.so.0:_ZN7ColPack12RecoveryCoreC1Ev
libColPack.so.0:_ZN7ColPack12RecoveryCoreC2Ev
libColPack.so.0:_ZN7ColPack12RecoveryCoreD1Ev
libColPack.so.0:_ZN7ColPack12RecoveryCoreD2Ev
libColPack.so.0:_ZN7ColPack13GraphColoring10Seed_resetEv
libColPack.so.0:_ZN7ColPack13GraphColoring11GetHubCountEv
libColPack.so.0:_ZN7ColPack13GraphColoring11GetSetCountEv
libColPack.so.0:_ZN7ColPack13GraphColoring12FindDistanceEii
libColPack.so.0:_ZN7ColPack13GraphColoring12StarColoringERSt6vectorIiSaIiEES4_RSt3mapIiS5_IiiSt4lessIiESaISt4pairIKiiEEES7_SaIS8_IS9_SC_EEE
libColPack.so.0:_ZN7ColPack13GraphColoring12StarColoringEv
libColPack.so.0:_ZN7ColPack13GraphColoring13BuildSubGraphEPSt3mapIiS1_IibSt4lessIiESaISt4pairIKibEEES3_SaIS4_IS5_S8_EEEiiPS8_
libColPack.so.0:_ZN7ColPack13GraphColoring13GetSeedMatrixEPiS1_
libColPack.so.0:_ZN7ColPack13GraphColoring13PrintD1ColorsEPSt3mapIiiSt4lessIiESaISt4pairIKiiEEEi
libColPack.so.0:_ZN7ColPack13GraphColoring13PrintSubGraphEPSt3mapIiS1_IibSt4lessIiESaISt4pairIKibEEES3_SaIS4_IS5_S8_EEE
libColPack.so.0:_ZN7ColPack13GraphColoring15AcyclicColoringERSt6vectorIiSaIiEERSt3mapIiS3_St4lessIiESaISt4pairIKiS3_EEE
libColPack.so.0:_ZN7ColPack13GraphColoring15AcyclicColoringEv
libColPack.so.0:_ZN7ColPack13GraphColoring15GetVertexColorsERSt6vectorIiSaIiEE
libColPack.so.0:_ZN7ColPack13GraphColoring16FileVertexColorsEv
libColPack.so.0:_ZN7ColPack13GraphColoring16SearchDepthFirstEiiiRSt6vectorIiSaIiEE
libColPack.so.0:_ZN7ColPack13GraphColoring17CheckStarColoringEv
libColPack.so.0:_ZN7ColPack13GraphColoring17ClearColoringONLYEv
libColPack.so.0:_ZN7ColPack13GraphColoring17NaiveStarColoringEv
libColPack.so.0:_ZN7ColPack13GraphColoring17PrintPotentialHubEPSt3mapIiiSt4lessIiESaISt4pairIKiiEEEiS4_IiiE
libColPack.so.0:_ZN7ColPack13GraphColoring17PrintVertexColorsEv
libColPack.so.0:_ZN7ColPack13GraphColoring18PrintConflictCountERSt6vectorIiSaIiEE
libColPack.so.0:_ZN7ColPack13GraphColoring18PrintConflictEdgesEPSt6vectorISt4pairIiiESaIS3_EEi
libColPack.so.0:_ZN7ColPack13GraphColoring18TriangularColoringEv
libColPack.so.0:_ZN7ColPack13GraphColoring19BuildColorsSubGraphEPSt3mapIiS1_IibSt4lessIiESaISt4pairIKibEEES3_SaIS4_IS5_S8_EEEPS8_
libColPack.so.0:_ZN7ColPack13GraphColoring19BuildStarCollectionERSt6vectorIiSaIiEE
libColPack.so.0:_ZN7ColPack13GraphColoring19CheckVertexColoringENSt7__cxx1112basic_stringIcSt11char_traitsIcESaIcEEE
libColPack.so.0:_ZN7ColPack13GraphColoring19DistanceOneColoringEv
libColPack.so.0:_ZN7ColPack13GraphColoring19DistanceTwoColoringEv
libColPack.so.0:_ZN7ColPack13GraphColoring19GetVertexColorCountEv
libColPack.so.0:_ZN7ColPack13GraphColoring19PrintStarCollectionERSt6vectorIiSaIiEES4_RSt3mapIiS5_IiiSt4lessIiESaISt4pairIKiiEEES7_SaIS8_IS9_SC_EEE
libColPack.so.0:_ZN7ColPack13GraphColoring19SetVertexColorCountEi
libColPack.so.0:_ZN7ColPack13GraphColoring19StarColoring_serialEv
libColPack.so.0:_ZN7ColPack13GraphColoring20BuildForbiddenColorsEiiiPSt3mapIibSt4lessIiESaISt4pairIKibEEEPS1_IiiS3_SaIS4_IS5_iEEEPSt6vectorISC_SaISC_EE
libColPack.so.0:_ZN7ColPack13GraphColoring20CheckAcyclicColoringEv
libColPack.so.0:_ZN7ColPack13GraphColoring20PrintForbiddenColorsEPSt3mapIibSt4lessIiESaISt4pairIKibEEEi
libColPack.so.0:_ZN7ColPack13GraphColoring20StarColoring_serial2Ev
libColPack.so.0:_ZN7ColPack13GraphColoring21CheckStarColoring_OMPEiPSt4pairIiiE
libColPack.so.0:_ZN7ColPack13GraphColoring21GetVertexColoringTimeEv
libColPack.so.0:_ZN7ColPack13GraphColoring21PrintColorCombinationEPSt3mapISt4pairIiiENS0_17Colors2Edge_ValueENS0_6lt_piiESaIS2_IKS3_S4_EEEiS3_i
libColPack.so.0:_ZN7ColPack13GraphColoring22BuildConnectedSubGraphEPSt3mapIiS1_IibSt4lessIiESaISt4pairIKibEEES3_SaIS4_IS5_S8_EEEiiPS8_
libColPack.so.0:_ZN7ColPack13GraphColoring22RestrictedStarColoringEv
libColPack.so.0:_ZN7ColPack13GraphColoring23CheckTriangularColoringEv
libColPack.so.0:_ZN7ColPack13GraphColoring23GetSeedMatrix_unmanagedEPiS1_
libColPack.so.0:_ZN7ColPack13GraphColoring23PrintVertexColorClassesEv
libColPack.so.0:_ZN7ColPack13GraphColoring24CheckDistanceTwoColoringEi
libColPack.so.0:_ZN7ColPack13GraphColoring24GetStarColoringConflictsERSt6vectorIS1_IiSaIiEESaIS3_EE
libColPack.so.0:_ZN7ColPack13GraphColoring24GetVertexColoringVariantB5cxx11Ev
libColPack.so.0:_ZN7ColPack13GraphColoring24PrintAllColorCombinationEPSt3mapISt4pairIiiENS0_17Colors2Edge_ValueENS0_6lt_piiESaIS2_IKS3_S4_EEEiii
libColPack.so.0:_ZN7ColPack13GraphColoring24PrintVertexAndColorAddedEiPSt6vectorISt4pairIiiESaIS3_EEi
libColPack.so.0:_ZN7ColPack13GraphColoring24SetVertexColoringVariantENSt7__cxx1112basic_stringIcSt11char_traitsIcESaIcEEE
libColPack.so.0:_ZN7ColPack13GraphColoring25FileVertexColoringMetricsEv
libColPack.so.0:_ZN7ColPack13GraphColoring25PickVerticesToBeRecoloredEiPSt6vectorISt4pairIiiESaIS3_EERS1_IiSaIiEE
libColPack.so.0:_ZN7ColPack13GraphColoring26ModifiedTriangularColoringEv
libColPack.so.0:_ZN7ColPack13GraphColoring26PrintVertexColoringMetricsEv
libColPack.so.0:_ZN7ColPack13GraphColoring27CalculateVertexColorClassesEv
libColPack.so.0:_ZN7ColPack13GraphColoring27PrintVertexColorCombinationEPSt3mapIiiSt4lessIiESaISt4pairIKiiEEE
libColPack.so.0:_ZN7ColPack13GraphColoring28BuildVertex2ColorCombinationEiPSt3mapIiSt6vectorISt4pairIiiESaIS4_EESt4lessIiESaIS3_IKiS6_EEEPS2_IS1_IiiS8_SaIS3_IS9_iEEESaISG_EE
libColPack.so.0:_ZN7ColPack13GraphColoring28PrintVertex2ColorCombinationEPSt6vectorISt3mapIiiSt4lessIiESaISt4pairIKiiEEESaIS9_EE
libColPack.so.0:_ZN7ColPack13GraphColoring28PrintVertex2ColorCombinationEiPSt3mapIiSt6vectorISt4pairIiiESaIS4_EESt4lessIiESaIS3_IKiS6_EEE
libColPack.so.0:_ZN7ColPack13GraphColoring29BuildStarFromColorCombinationEiiSt4pairIiiEPSt3mapIS2_NS0_17Colors2Edge_ValueENS0_6lt_piiESaIS1_IKS2_S4_EEEPS3_IiSt6vectorIS2_SaIS2_EESt4lessIiESaIS1_IKiSD_EEEPS3_IiiSF_SaIS1_ISG_iEEE
libColPack.so.0:_ZN7ColPack13GraphColoring29CheckQuickDistanceTwoColoringEi
libColPack.so.0:_ZN7ColPack13GraphColoring29GetVertexColoringCheckingTimeEv
libColPack.so.0:_ZN7ColPack13GraphColoring29PrintVertexD1NeighborAndColorEii
libColPack.so.0:_ZN7ColPack13GraphColoring30SetStringVertexColoringVariantENSt7__cxx1112basic_stringIcSt11char_traitsIcESaIcEEE
libColPack.so.0:_ZN7ColPack13GraphColoring32DetectConflictInColorCombinationEiiSt4pairIiiEPSt3mapIS2_NS0_17Colors2Edge_ValueENS0_6lt_piiESaIS1_IKS2_S4_EEEPS3_IiSt6vectorIS2_SaIS2_EESt4lessIiESaIS1_IKiSD_EEEPS3_IiiSF_SaIS1_ISG_iEEEPSD_PSB_IiSaIiEE
libColPack.so.0:_ZN7ColPack13GraphColoring32PrintVertex2ColorCombination_rawEPSt6vectorISt3mapIiiSt4lessIiESaISt4pairIKiiEEESaIS9_EE
libColPack.so.0:_ZN7ColPack13GraphColoring35AcyclicColoring_ForIndirectRecoveryEv
libColPack.so.0:_ZN7ColPack13GraphColoring41BuildStarFromColorCombination_forCheckingEiiiSt4pairIiiEPSt3mapIS2_NS0_17Colors2Edge_ValueENS0_6lt_piiESaIS1_IKS2_S4_EEEPS3_IiiSt4lessIiESaIS1_IKiiEEE
libColPack.so.0:_ZN7ColPack13GraphColoring5ClearEv
libColPack.so.0:_ZN7ColPack13GraphColoring9FindCycleEiiiiRSt6vectorIiSaIiEES4_S4_
libColPack.so.0:_ZN7ColPack13GraphColoring9Seed_initEv
libColPack.so.0:_ZN7ColPack13GraphColoring9UpdateSetEiiiRSt3mapIiS1_IiiSt4lessIiESaISt4pairIKiiEEES3_SaIS4_IS5_S8_EEERSt6vectorIiSaIiEESG_SG_
libColPack.so.0:_ZN7ColPack13GraphColoringC1Ev
libColPack.so.0:_ZN7ColPack13GraphColoringC2Ev
libColPack.so.0:_ZN7ColPack13GraphColoringD0Ev
libColPack.so.0:_ZN7ColPack13GraphColoringD1Ev
libColPack.so.0:_ZN7ColPack13GraphColoringD2Ev
libColPack.so.0:_ZN7ColPack13GraphOrdering13OrderVerticesENSt7__cxx1112basic_stringIcSt11char_traitsIcESaIcEEE
libColPack.so.0:_ZN7ColPack13GraphOrdering14RandomOrderingEv
libColPack.so.0:_ZN7ColPack13GraphOrdering15NaturalOrderingEv
libColPack.so.0:_ZN7ColPack13GraphOrdering16GetMaxBackDegreeEv
libColPack.so.0:_ZN7ColPack13GraphOrdering17ClearOrderingONLYEv
libColPack.so.0:_ZN7ColPack13GraphOrdering18GetOrderedVerticesERSt6vectorIiSaIiEE
libColPack.so.0:_ZN7ColPack13GraphOrdering18printVertexEdgeMapERSt6vectorIS1_ISt4pairIiiESaIS3_EESaIS5_EE
libColPack.so.0:_ZN7ColPack13GraphOrdering19CheckVertexOrderingENSt7__cxx1112basic_stringIcSt11char_traitsIcESaIcEEE
libColPack.so.0:_ZN7ColPack13GraphOrdering19CheckVertexOrderingEv
libColPack.so.0:_ZN7ColPack13GraphOrdering19PrintVertexOrderingEv
libColPack.so.0:_ZN7ColPack13GraphOrdering20LargestFirstOrderingEv
libColPack.so.0:_ZN7ColPack13GraphOrdering20SmallestLastOrderingEv
libColPack.so.0:_ZN7ColPack13GraphOrdering21ColoringBasedOrderingERSt6vectorIiSaIiEE
libColPack.so.0:_ZN7ColPack13GraphOrdering21GetVertexOrderingTimeEv
libColPack.so.0:_ZN7ColPack13GraphOrdering23IncidenceDegreeOrderingEv
libColPack.so.0:_ZN7ColPack13GraphOrdering24GetVertexOrderingVariantB5cxx11Ev
libColPack.so.0:_ZN7ColPack13GraphOrdering27DynamicLargestFirstOrderingEv
libColPack.so.0:_ZN7ColPack13GraphOrdering27SmallestLastOrdering_serialEv
libColPack.so.0:_ZN7ColPack13GraphOrdering31DistanceTwoLargestFirstOrderingEv
libColPack.so.0:_ZN7ColPack13GraphOrdering31DistanceTwoSmallestLastOrderingEv
libColPack.so.0:_ZN7ColPack13GraphOrdering34DistanceTwoIncidenceDegreeOrderingEv
libColPack.so.0:_ZN7ColPack13GraphOrdering38DistanceTwoDynamicLargestFirstOrderingEv
libColPack.so.0:_ZN7ColPack13GraphOrdering5ClearEv
libColPack.so.0:_ZN7ColPack13GraphOrderingC1Ev
libColPack.so.0:_ZN7ColPack13GraphOrderingC2Ev
libColPack.so.0:_ZN7ColPack13GraphOrderingD0Ev
libColPack.so.0:_ZN7ColPack13GraphOrderingD1Ev
libColPack.so.0:_ZN7ColPack13GraphOrderingD2Ev
libColPack.so.0:_ZN7ColPack13isMeTiSFormatENSt7__cxx1112basic_stringIcSt11char_traitsIcESaIcEEE
libColPack.so.0:_ZN7ColPack15HessianRecovery30DirectRecover_CoordinateFormatEPNS_22GraphColoringInterfaceEPPdPPjS6_S6_S4_
libColPack.so.0:_ZN7ColPack15HessianRecovery32IndirectRecover_CoordinateFormatEPNS_22GraphColoringInterfaceEPPdPPjS6_S6_S4_
libColPack.so.0:_ZN7ColPack15HessianRecovery33DirectRecover_RowCompressedFormatEPNS_22GraphColoringInterfaceEPPdPPjPS4_
libColPack.so.0:_ZN7ColPack15HessianRecovery33DirectRecover_SparseSolversFormatEPNS_22GraphColoringInterfaceEPPdPPjS6_S6_S4_
libColPack.so.0:_ZN7ColPack15HessianRecovery35IndirectRecover_RowCompressedFormatEPNS_22GraphColoringInterfaceEPPdPPjPS4_
libColPack.so.0:_ZN7ColPack15HessianRecovery35IndirectRecover_SparseSolversFormatEPNS_22GraphColoringInterfaceEPPdPPjS6_S6_S4_
libColPack.so.0:_ZN7ColPack15HessianRecovery38DirectRecover_CoordinateFormat_usermemEPNS_22GraphColoringInterfaceEPPdPPjS6_S6_S4_
libColPack.so.0:_ZN7ColPack15HessianRecovery38DirectRecover_CoordinateFormat_vectorsEPNS_22GraphColoringInterfaceEPPdPPjRSt6vectorIjSaIjEESA_RS7_IdSaIdEE
libColPack.so.0:_ZN7ColPack15HessianRecovery40DirectRecover_CoordinateFormat_unmanagedEPNS_22GraphColoringInterfaceEPPdPPjS6_S6_S4_
libColPack.so.0:_ZN7ColPack15HessianRecovery40IndirectRecover_CoordinateFormat_usermemEPNS_22GraphColoringInterfaceEPPdPPjS6_S6_S4_
libColPack.so.0:_ZN7ColPack15HessianRecovery40IndirectRecover_CoordinateFormat_vectorsEPNS_22GraphColoringInterfaceEPPdPPjRSt6vectorIjSaIjEESA_RS7_IdSaIdEE
libColPack.so.0:_ZN7ColPack15HessianRecovery41DirectRecover_RowCompressedFormat_usermemEPNS_22GraphColoringInterfaceEPPdPPjPS4_
libColPack.so.0:_ZN7ColPack15HessianRecovery41DirectRecover_SparseSolversFormat_usermemEPNS_22GraphColoringInterfaceEPPdPPjS6_S6_S4_j
libColPack.so.0:_ZN7ColPack15HessianRecovery42IndirectRecover_CoordinateFormat_unmanagedEPNS_22GraphColoringInterfaceEPPdPPjS6_S6_S4_
libColPack.so.0:_ZN7ColPack15HessianRecovery43DirectRecover_RowCompressedFormat_unmanagedEPNS_22GraphColoringInterfaceEPPdPPjPS4_
libColPack.so.0:_ZN7ColPack15HessianRecovery43DirectRecover_SparseSolversFormat_unmanagedEPNS_22GraphColoringInterfaceEPPdPPjS6_S6_S4_j
libColPack.so.0:_ZN7ColPack15HessianRecovery43IndirectRecover_RowCompressedFormat_usermemEPNS_22GraphColoringInterfaceEPPdPPjPS4_
libColPack.so.0:_ZN7ColPack15HessianRecovery43IndirectRecover_SparseSolversFormat_usermemEPNS_22GraphColoringInterfaceEPPdPPjS6_S6_S4_j
libColPack.so.0:_ZN7ColPack15HessianRecovery45IndirectRecover_RowCompressedFormat_unmanagedEPNS_22GraphColoringInterfaceEPPdPPjPS4_
libColPack.so.0:_ZN7ColPack15HessianRecovery45IndirectRecover_SparseSolversFormat_unmanagedEPNS_22GraphColoringInterfaceEPPdPPjS6_S6_S4_j
libColPack.so.0:_ZN7ColPack15StringTokenizer11CountTokensEPc
libColPack.so.0:_ZN7ColPack15StringTokenizer11CountTokensEv
libColPack.so.0:_ZN7ColPack15StringTokenizer12GetLastTokenB5cxx11Ev
libColPack.so.0:_ZN7ColPack15StringTokenizer12GetNextTokenB5cxx11EPc
libColPack.so.0:_ZN7ColPack15StringTokenizer12GetNextTokenB5cxx11Ev
libColPack.so.0:_ZN7ColPack15StringTokenizer13GetFirstTokenB5cxx11Ev
libColPack.so.0:_ZN7ColPack15StringTokenizer13HasMoreTokensEPc
libColPack.so.0:_ZN7ColPack15StringTokenizer13HasMoreTokensEv
libColPack.so.0:_ZN7ColPack15StringTokenizer14SetInputStringEPc
libColPack.so.0:_ZN7ColPack15StringTokenizer18SetDelimiterStringEPc
libColPack.so.0:_ZN7ColPack15StringTokenizer8GetTokenB5cxx11Ei
libColPack.so.0:_ZN7ColPack15StringTokenizerC1ENSt7__cxx1112basic_stringIcSt11char_traitsIcESaIcEEEPc
libColPack.so.0:_ZN7ColPack15StringTokenizerC1ENSt7__cxx1112basic_stringIcSt11char_traitsIcESaIcEEES6_
libColPack.so.0:_ZN7ColPack15StringTokenizerC1EPc
libColPack.so.0:_ZN7ColPack15StringTokenizerC1EPcS1_
libColPack.so.0:_ZN7ColPack15StringTokenizerC1Ev
libColPack.so.0:_ZN7ColPack15StringTokenizerC2ENSt7__cxx1112basic_stringIcSt11char_traitsIcESaIcEEEPc
libColPack.so.0:_ZN7ColPack15StringTokenizerC2ENSt7__cxx1112basic_stringIcSt11char_traitsIcESaIcEEES6_
libColPack.so.0:_ZN7ColPack15StringTokenizerC2EPc
libColPack.so.0:_ZN7ColPack15StringTokenizerC2EPcS1_
libColPack.so.0:_ZN7ColPack15StringTokenizerC2Ev
libColPack.so.0:_ZN7ColPack15StringTokenizerD1Ev
libColPack.so.0:_ZN7ColPack15StringTokenizerD2Ev
libColPack.so.0:_ZN7ColPack16GraphInputOutput10ParseWidthENSt7__cxx1112basic_stringIcSt11char_traitsIcESaIcEEE
libColPack.so.0:_ZN7ColPack16GraphInputOutput10PrintGraphEv
libColPack.so.0:_ZN7ColPack16GraphInputOutput11PrintMatrixERSt6vectorIiSaIiEES4_RS1_IdSaIdEE
libColPack.so.0:_ZN7ColPack16GraphInputOutput11PrintMatrixEv
libColPack.so.0:_ZN7ColPack16GraphInputOutput12GetInputFileB5cxx11Ev
libColPack.so.0:_ZN7ColPack16GraphInputOutput17WriteMatrixMarketENSt7__cxx1112basic_stringIcSt11char_traitsIcESaIcEEEb
libColPack.so.0:_ZN7ColPack16GraphInputOutput18PrintVertexDegreesEv
libColPack.so.0:_ZN7ColPack16GraphInputOutput18ReadAdjacencyGraphENSt7__cxx1112basic_stringIcSt11char_traitsIcESaIcEEES6_
libColPack.so.0:_ZN7ColPack16GraphInputOutput19PrintGraphStructureEv
libColPack.so.0:_ZN7ColPack16GraphInputOutput20PrintGraphStructure2Ev
libColPack.so.0:_ZN7ColPack16GraphInputOutput22CalculateVertexDegreesEv
libColPack.so.0:_ZN7ColPack16GraphInputOutput23ReadMeTiSAdjacencyGraphENSt7__cxx1112basic_stringIcSt11char_traitsIcESaIcEEE
libColPack.so.0:_ZN7ColPack16GraphInputOutput24ReadMeTiSAdjacencyGraph2ENSt7__cxx1112basic_stringIcSt11char_traitsIcESaIcEEE
libColPack.so.0:_ZN7ColPack16GraphInputOutput30ReadMatrixMarketAdjacencyGraphENSt7__cxx1112basic_stringIcSt11char_traitsIcESaIcEEEb
libColPack.so.0:_ZN7ColPack16GraphInputOutput31ReadHarwellBoeingAdjacencyGraphENSt7__cxx1112basic_stringIcSt11char_traitsIcESaIcEEE
libColPack.so.0:_ZN7ColPack16GraphInputOutput33BuildGraphFromRowCompressedFormatEPPji
libColPack.so.0:_ZN7ColPack16GraphInputOutput5ClearEv
libColPack.so.0:_ZN7ColPack16GraphInputOutputC1Ev
libColPack.so.0:_ZN7ColPack16GraphInputOutputC2Ev
libColPack.so.0:_ZN7ColPack16GraphInputOutputD0Ev
libColPack.so.0:_ZN7ColPack16GraphInputOutputD1Ev
libColPack.so.0:_ZN7ColPack16GraphInputOutputD2Ev
libColPack.so.0:_ZN7ColPack18BipartiteGraphCore12GetEdgeCountEv
libColPack.so.0:_ZN7ColPack18BipartiteGraphCore12GetInputFileB5cxx11Ev
libColPack.so.0:_ZN7ColPack18BipartiteGraphCore14GetRowVerticesEPPj
libColPack.so.0:_ZN7ColPack18BipartiteGraphCore16GetColumnIndicesEPPj
libColPack.so.0:_ZN7ColPack18BipartiteGraphCore16GetVertexEdgeMapERSt3mapIiS1_IiiSt4lessIiESaISt4pairIKiiEEES3_SaIS4_IS5_S8_EEE
libColPack.so.0:_ZN7ColPack18BipartiteGraphCore17GetRowVertexCountEv
libColPack.so.0:_ZN7ColPack18BipartiteGraphCore18GetLeftVertexCountEv
libColPack.so.0:_ZN7ColPack18BipartiteGraphCore18GetLeftVerticesPtrEv
libColPack.so.0:_ZN7ColPack18BipartiteGraphCore19GetRightVertexCountEv
libColPack.so.0:_ZN7ColPack18BipartiteGraphCore19GetRightVerticesPtrEv
libColPack.so.0:_ZN7ColPack18BipartiteGraphCore20GetColumnVertexCountEv
libColPack.so.0:_ZN7ColPack18BipartiteGraphCore22GetAverageVertexDegreeEv
libColPack.so.0:_ZN7ColPack18BipartiteGraphCore22GetMaximumVertexDegreeEv
libColPack.so.0:_ZN7ColPack18BipartiteGraphCore22GetMinimumVertexDegreeEv
libColPack.so.0:_ZN7ColPack18BipartiteGraphCore25GetAverageRowVertexDegreeEv
libColPack.so.0:_ZN7ColPack18BipartiteGraphCore25GetMaximumRowVertexDegreeEv
libColPack.so.0:_ZN7ColPack18BipartiteGraphCore25GetMinimumRowVertexDegreeEv
libColPack.so.0:_ZN7ColPack18BipartiteGraphCore28GetAverageColumnVertexDegreeEv
libColPack.so.0:_ZN7ColPack18BipartiteGraphCore28GetMaximumColumnVertexDegreeEv
libColPack.so.0:_ZN7ColPack18BipartiteGraphCore28GetMinimumColumnVertexDegreeEv
libColPack.so.0:_ZN7ColPack18BipartiteGraphCore5ClearEv
libColPack.so.0:_ZN7ColPack18JacobianRecovery1D23RecoverD2Cln_ADICFormatEPNS_38BipartiteGraphPartialColoringInterfaceEPPdRNSt7__cxx114listISt3setIiSt4lessIiESaIiEESaISB_EEERNS6_ISt6vectorIdSaIdEESaISH_EEE
libColPack.so.0:_ZN7ColPack18JacobianRecovery1D29RecoverD2Cln_CoordinateFormatEPNS_38BipartiteGraphPartialColoringInterfaceEPPdPPjS6_S6_S4_
libColPack.so.0:_ZN7ColPack18JacobianRecovery1D29RecoverD2Row_CoordinateFormatEPNS_38BipartiteGraphPartialColoringInterfaceEPPdPPjS6_S6_S4_
libColPack.so.0:_ZN7ColPack18JacobianRecovery1D32RecoverD2Cln_RowCompressedFormatEPNS_38BipartiteGraphPartialColoringInterfaceEPPdPPjPS4_
libColPack.so.0:_ZN7ColPack18JacobianRecovery1D32RecoverD2Cln_SparseSolversFormatEPNS_38BipartiteGraphPartialColoringInterfaceEPPdPPjS6_S6_S4_
libColPack.so.0:_ZN7ColPack18JacobianRecovery1D32RecoverD2Row_RowCompressedFormatEPNS_38BipartiteGraphPartialColoringInterfaceEPPdPPjPS4_
libColPack.so.0:_ZN7ColPack18JacobianRecovery1D32RecoverD2Row_SparseSolversFormatEPNS_38BipartiteGraphPartialColoringInterfaceEPPdPPjS6_S6_S4_
libColPack.so.0:_ZN7ColPack18JacobianRecovery1D37RecoverD2Cln_CoordinateFormat_usermemEPNS_38BipartiteGraphPartialColoringInterfaceEPPdPPjS6_S6_S4_
libColPack.so.0:_ZN7ColPack18JacobianRecovery1D37RecoverD2Row_CoordinateFormat_usermemEPNS_38BipartiteGraphPartialColoringInterfaceEPPdPPjS6_S6_S4_
libColPack.so.0:_ZN7ColPack18JacobianRecovery1D39RecoverD2Cln_CoordinateFormat_unmanagedEPNS_38BipartiteGraphPartialColoringInterfaceEPPdPPjS6_S6_S4_
libColPack.so.0:_ZN7ColPack18JacobianRecovery1D39RecoverD2Row_CoordinateFormat_unmanagedEPNS_38BipartiteGraphPartialColoringInterfaceEPPdPPjS6_S6_S4_
libColPack.so.0:_ZN7ColPack18JacobianRecovery1D40RecoverD2Cln_RowCompressedFormat_usermemEPNS_38BipartiteGraphPartialColoringInterfaceEPPdPPjPS4_
libColPack.so.0:_ZN7ColPack18JacobianRecovery1D40RecoverD2Cln_SparseSolversFormat_usermemEPNS_38BipartiteGraphPartialColoringInterfaceEPPdPPjS6_S6_S4_
libColPack.so.0:_ZN7ColPack18JacobianRecovery1D40RecoverD2Row_RowCompressedFormat_usermemEPNS_38BipartiteGraphPartialColoringInterfaceEPPdPPjPS4_
libColPack.so.0:_ZN7ColPack18JacobianRecovery1D40RecoverD2Row_SparseSolversFormat_usermemEPNS_38BipartiteGraphPartialColoringInterfaceEPPdPPjS6_S6_S4_
libColPack.so.0:_ZN7ColPack18JacobianRecovery1D42RecoverD2Cln_RowCompressedFormat_unmanagedEPNS_38BipartiteGraphPartialColoringInterfaceEPPdPPjPS4_
libColPack.so.0:_ZN7ColPack18JacobianRecovery1D42RecoverD2Cln_SparseSolversFormat_unmanagedEPNS_38BipartiteGraphPartialColoringInterfaceEPPdPPjS6_S6_S4_
libColPack.so.0:_ZN7ColPack18JacobianRecovery1D42RecoverD2Row_RowCompressedFormat_unmanagedEPNS_38BipartiteGraphPartialColoringInterfaceEPPdPPjPS4_
libColPack.so.0:_ZN7ColPack18JacobianRecovery1D42RecoverD2Row_SparseSolversFormat_unmanagedEPNS_38BipartiteGraphPartialColoringInterfaceEPPdPPjS6_S6_S4_
libColPack.so.0:_ZN7ColPack18JacobianRecovery1D50CompareMatrix_CoordinateFormat_vs_CoordinateFormatEiPPjS2_PPdS2_S2_S4_
libColPack.so.0:_ZN7ColPack18JacobianRecovery1D53CompareMatrix_CoordinateFormat_vs_RowCompressedFormatEiPPjS2_PPdiPS2_PS4_
libColPack.so.0:_ZN7ColPack18JacobianRecovery2D30DirectRecover_CoordinateFormatEPNS_33BipartiteGraphBicoloringInterfaceEPPdS4_PPjS6_S6_S4_
libColPack.so.0:_ZN7ColPack18JacobianRecovery2D33DirectRecover_RowCompressedFormatEPNS_33BipartiteGraphBicoloringInterfaceEPPdS4_PPjPS4_
libColPack.so.0:_ZN7ColPack18JacobianRecovery2D33DirectRecover_SparseSolversFormatEPNS_33BipartiteGraphBicoloringInterfaceEPPdS4_PPjS6_S6_S4_
libColPack.so.0:_ZN7ColPack18JacobianRecovery2D38DirectRecover_CoordinateFormat_usermemEPNS_33BipartiteGraphBicoloringInterfaceEPPdS4_PPjS6_S6_S4_
libColPack.so.0:_ZN7ColPack18JacobianRecovery2D40DirectRecover_CoordinateFormat_unmanagedEPNS_33BipartiteGraphBicoloringInterfaceEPPdS4_PPjS6_S6_S4_
libColPack.so.0:_ZN7ColPack18JacobianRecovery2D41DirectRecover_RowCompressedFormat_usermemEPNS_33BipartiteGraphBicoloringInterfaceEPPdS4_PPjPS4_
libColPack.so.0:_ZN7ColPack18JacobianRecovery2D41DirectRecover_SparseSolversFormat_usermemEPNS_33BipartiteGraphBicoloringInterfaceEPPdS4_PPjS6_S6_S4_
libColPack.so.0:_ZN7ColPack18JacobianRecovery2D43DirectRecover_RowCompressedFormat_unmanagedEPNS_33BipartiteGraphBicoloringInterfaceEPPdS4_PPjPS4_
libColPack.so.0:_ZN7ColPack18JacobianRecovery2D43DirectRecover_SparseSolversFormat_unmanagedEPNS_33BipartiteGraphBicoloringInterfaceEPPdS4_PPjS6_S6_S4_
libColPack.so.0:_ZN7ColPack1fEi
libColPack.so.0:_ZN7ColPack20isMatrixMarketFormatENSt7__cxx1112basic_stringIcSt11char_traitsIcESaIcEEE
libColPack.so.0:_ZN7ColPack21isHarwellBoeingFormatENSt7__cxx1112basic_stringIcSt11char_traitsIcESaIcEEE
libColPack.so.0:_ZN7ColPack22BipartiteGraphOrdering13OrderVerticesENSt7__cxx1112basic_stringIcSt11char_traitsIcESaIcEEE
libColPack.so.0:_ZN7ColPack22BipartiteGraphOrdering14RandomOrderingEv
libColPack.so.0:_ZN7ColPack22BipartiteGraphOrdering15NaturalOrderingEv
libColPack.so.0:_ZN7ColPack22BipartiteGraphOrdering18GetOrderedVerticesERSt6vectorIiSaIiEE
libColPack.so.0:_ZN7ColPack22BipartiteGraphOrdering19CheckVertexOrderingENSt7__cxx1112basic_stringIcSt11char_traitsIcESaIcEEE
libColPack.so.0:_ZN7ColPack22BipartiteGraphOrdering19PrintVertexOrderingEv
libColPack.so.0:_ZN7ColPack22BipartiteGraphOrdering20LargestFirstOrderingEv
libColPack.so.0:_ZN7ColPack22BipartiteGraphOrdering20SmallestLastOrderingEv
libColPack.so.0:_ZN7ColPack22BipartiteGraphOrdering21GetVertexOrderingTimeEv
libColPack.so.0:_ZN7ColPack22BipartiteGraphOrdering23IncidenceDegreeOrderingEv
libColPack.so.0:_ZN7ColPack22BipartiteGraphOrdering24GetVertexOrderingVariantB5cxx11Ev
libColPack.so.0:_ZN7ColPack22BipartiteGraphOrdering27DynamicLargestFirstOrderingEv
libColPack.so.0:_ZN7ColPack22BipartiteGraphOrdering29SelectiveLargestFirstOrderingEv
libColPack.so.0:_ZN7ColPack22BipartiteGraphOrdering29SelectiveSmallestLastOrderingEv
libColPack.so.0:_ZN7ColPack22BipartiteGraphOrdering32SelectiveIncidenceDegreeOrderingEv
libColPack.so.0:_ZN7ColPack22BipartiteGraphOrdering5ClearEv
libColPack.so.0:_ZN7ColPack22BipartiteGraphOrdering5ResetEv
libColPack.so.0:_ZN7ColPack22BipartiteGraphOrderingC1Ev
libColPack.so.0:_ZN7ColPack22BipartiteGraphOrderingC2Ev
libColPack.so.0:_ZN7ColPack22BipartiteGraphOrderingD0Ev
libColPack.so.0:_ZN7ColPack22BipartiteGraphOrderingD1Ev
libColPack.so.0:_ZN7ColPack22BipartiteGraphOrderingD2Ev
libColPack.so.0:_ZN7ColPack22GraphColoringInterface12StarColoringENSt7__cxx1112basic_stringIcSt11char_traitsIcESaIcEEE
libColPack.so.0:_ZN7ColPack22GraphColoringInterface13GetSeedMatrixEPiS1_
libColPack.so.0:_ZN7ColPack22GraphColoringInterface15AcyclicColoringENSt7__cxx1112basic_stringIcSt11char_traitsIcESaIcEEE
libColPack.so.0:_ZN7ColPack22GraphColoringInterface17NaiveStarColoringENSt7__cxx1112basic_stringIcSt11char_traitsIcESaIcEEE
libColPack.so.0:_ZN7ColPack22GraphColoringInterface18GetOrderedVerticesERSt6vectorIiSaIiEE
libColPack.so.0:_ZN7ColPack22GraphColoringInterface18PrintVertexEdgeMapERSt6vectorIiSaIiEES4_RSt3mapIiS5_IiiSt4lessIiESaISt4pairIKiiEEES7_SaIS8_IS9_SC_EEE
libColPack.so.0:_ZN7ColPack22GraphColoringInterface18TriangularColoringENSt7__cxx1112basic_stringIcSt11char_traitsIcESaIcEEE
libColPack.so.0:_ZN7ColPack22GraphColoringInterface19DistanceOneColoringENSt7__cxx1112basic_stringIcSt11char_traitsIcESaIcEEE
libColPack.so.0:_ZN7ColPack22GraphColoringInterface19DistanceTwoColoringENSt7__cxx1112basic_stringIcSt11char_traitsIcESaIcEEE
libColPack.so.0:_ZN7ColPack22GraphColoringInterface19GenerateSeedHessianEPPPdPiS4_NSt7__cxx1112basic_stringIcSt11char_traitsIcESaIcEEESA_
libColPack.so.0:_ZN7ColPack22GraphColoringInterface19GetVertexColorCountEv
libColPack.so.0:_ZN7ColPack22GraphColoringInterface22RestrictedStarColoringENSt7__cxx1112basic_stringIcSt11char_traitsIcESaIcEEE
libColPack.so.0:_ZN7ColPack22GraphColoringInterface25PrintInducedVertexDegreesEiiRSt6vectorINSt7__cxx114listIiSaIiEEESaIS5_EE
libColPack.so.0:_ZN7ColPack22GraphColoringInterface27CalculateVertexColorClassesEv
libColPack.so.0:_ZN7ColPack22GraphColoringInterface29GenerateSeedHessian_unmanagedEPPPdPiS4_NSt7__cxx1112basic_stringIcSt11char_traitsIcESaIcEEESA_
libColPack.so.0:_ZN7ColPack22GraphColoringInterface35AcyclicColoring_ForIndirectRecoveryENSt7__cxx1112basic_stringIcSt11char_traitsIcESaIcEEE
libColPack.so.0:_ZN7ColPack22GraphColoringInterface5ClearEv
libColPack.so.0:_ZN7ColPack22GraphColoringInterface8ColoringENSt7__cxx1112basic_stringIcSt11char_traitsIcESaIcEEES6_
libColPack.so.0:_ZN7ColPack22GraphColoringInterfaceC1Eiz
libColPack.so.0:_ZN7ColPack22GraphColoringInterfaceC2Eiz
libColPack.so.0:_ZN7ColPack22GraphColoringInterfaceD0Ev
libColPack.so.0:_ZN7ColPack22GraphColoringInterfaceD1Ev
libColPack.so.0:_ZN7ColPack22GraphColoringInterfaceD2Ev
libColPack.so.0:_ZN7ColPack24BipartiteGraphBicoloring10Seed_resetEv
libColPack.so.0:_ZN7ColPack24BipartiteGraphBicoloring13GetSeedMatrixEPPPdPiS4_S3_S4_S4_
libColPack.so.0:_ZN7ColPack24BipartiteGraphBicoloring17GetLeftSeedMatrixEPiS1_
libColPack.so.0:_ZN7ColPack24BipartiteGraphBicoloring17GetViolationCountEv
libColPack.so.0:_ZN7ColPack24BipartiteGraphBicoloring18GetRightSeedMatrixEPiS1_
libColPack.so.0:_ZN7ColPack24BipartiteGraphBicoloring19CheckStarBicoloringEv
libColPack.so.0:_ZN7ColPack24BipartiteGraphBicoloring19CheckVertexColoringENSt7__cxx1112basic_stringIcSt11char_traitsIcESaIcEEE
libColPack.so.0:_ZN7ColPack24BipartiteGraphBicoloring19GetLeftVertexColorsERSt6vectorIiSaIiEE
libColPack.so.0:_ZN7ColPack24BipartiteGraphBicoloring19GetVertexColorCountEv
libColPack.so.0:_ZN7ColPack24BipartiteGraphBicoloring19PrintVertexBicolorsEv
libColPack.so.0:_ZN7ColPack24BipartiteGraphBicoloring20GetRightVertexColorsERSt6vectorIiSaIiEE
libColPack.so.0:_ZN7ColPack24BipartiteGraphBicoloring21GetVertexColoringTimeEv
libColPack.so.0:_ZN7ColPack24BipartiteGraphBicoloring23GetLeftVertexColorCountEv
libColPack.so.0:_ZN7ColPack24BipartiteGraphBicoloring23GetSeedMatrix_unmanagedEPPPdPiS4_S3_S4_S4_
libColPack.so.0:_ZN7ColPack24BipartiteGraphBicoloring24GetRightVertexColorCountEv
libColPack.so.0:_ZN7ColPack24BipartiteGraphBicoloring24GetVertexColoringVariantB5cxx11Ev
libColPack.so.0:_ZN7ColPack24BipartiteGraphBicoloring25PresetCoveredVertexColorsEv
libColPack.so.0:_ZN7ColPack24BipartiteGraphBicoloring25PrintVertexBicolorClassesEv
libColPack.so.0:_ZN7ColPack24BipartiteGraphBicoloring26GetRightVertexDefaultColorEv
libColPack.so.0:_ZN7ColPack24BipartiteGraphBicoloring26GetVertexBicoloringVariantB5cxx11Ev
libColPack.so.0:_ZN7ColPack24BipartiteGraphBicoloring27CalculateVertexColorClassesEv
libColPack.so.0:_ZN7ColPack24BipartiteGraphBicoloring27GetLeftSeedMatrix_unmanagedEPiS1_
libColPack.so.0:_ZN7ColPack24BipartiteGraphBicoloring28GetRightSeedMatrix_unmanagedEPiS1_
libColPack.so.0:_ZN7ColPack24BipartiteGraphBicoloring28PrintVertexBicoloringMetricsEv
libColPack.so.0:_ZN7ColPack24BipartiteGraphBicoloring29FixMinimalCoverStarBicoloringEv
libColPack.so.0:_ZN7ColPack24BipartiteGraphBicoloring29MinimalCoveringStarBicoloringEv
libColPack.so.0:_ZN7ColPack24BipartiteGraphBicoloring30ExplicitCoveringStarBicoloringEv
libColPack.so.0:_ZN7ColPack24BipartiteGraphBicoloring30ImplicitCoveringStarBicoloringEv
libColPack.so.0:_ZN7ColPack24BipartiteGraphBicoloring32GetRightVertexColors_TransformedERSt6vectorIiSaIiEE
libColPack.so.0:_ZN7ColPack24BipartiteGraphBicoloring36ImplicitCoveringGreedyStarBicoloringEv
libColPack.so.0:_ZN7ColPack24BipartiteGraphBicoloring37MinimalCoveringRowMajorStarBicoloringEv
libColPack.so.0:_ZN7ColPack24BipartiteGraphBicoloring38ExplicitCoveringModifiedStarBicoloringEv
libColPack.so.0:_ZN7ColPack24BipartiteGraphBicoloring40ImplicitCoveringRestrictedStarBicoloringEv
libColPack.so.0:_ZN7ColPack24BipartiteGraphBicoloring40MinimalCoveringColumnMajorStarBicoloringEv
libColPack.so.0:_ZN7ColPack24BipartiteGraphBicoloring42ImplicitCoveringConservativeStarBicoloringEv
libColPack.so.0:_ZN7ColPack24BipartiteGraphBicoloring5ClearEv
libColPack.so.0:_ZN7ColPack24BipartiteGraphBicoloring5ResetEv
libColPack.so.0:_ZN7ColPack24BipartiteGraphBicoloring9Seed_initEv
libColPack.so.0:_ZN7ColPack24BipartiteGraphBicoloringC1Ev
libColPack.so.0:_ZN7ColPack24BipartiteGraphBicoloringC2Ev
libColPack.so.0:_ZN7ColPack24BipartiteGraphBicoloringD0Ev
libColPack.so.0:_ZN7ColPack24BipartiteGraphBicoloringD1Ev
libColPack.so.0:_ZN7ColPack24BipartiteGraphBicoloringD2Ev
libColPack.so.0:_ZN7ColPack25BipartiteGraphInputOutput17WriteMatrixMarketENSt7__cxx1112basic_stringIcSt11char_traitsIcESaIcEEE
libColPack.so.0:_ZN7ColPack25BipartiteGraphInputOutput18PrintVertexDegreesEv
libColPack.so.0:_ZN7ColPack25BipartiteGraphInputOutput18ReadBipartiteGraphENSt7__cxx1112basic_stringIcSt11char_traitsIcESaIcEEES6_
libColPack.so.0:_ZN7ColPack25BipartiteGraphInputOutput19PrintBipartiteGraphEv
libColPack.so.0:_ZN7ColPack25BipartiteGraphInputOutput22CalculateVertexDegreesEv
libColPack.so.0:_ZN7ColPack25BipartiteGraphInputOutput23ReadMeTiSBipartiteGraphENSt7__cxx1112basic_stringIcSt11char_traitsIcESaIcEEE
libColPack.so.0:_ZN7ColPack25BipartiteGraphInputOutput25BuildBPGraphFromCSRFormatEPiiiS1_
libColPack.so.0:_ZN7ColPack25BipartiteGraphInputOutput26BuildBPGraphFromADICFormatEPNSt7__cxx114listISt3setIiSt4lessIiESaIiEESaIS7_EEEi
libColPack.so.0:_ZN7ColPack25BipartiteGraphInputOutput30ReadMatrixMarketBipartiteGraphENSt7__cxx1112basic_stringIcSt11char_traitsIcESaIcEEE
libColPack.so.0:_ZN7ColPack25BipartiteGraphInputOutput31ReadGenericMatrixBipartiteGraphENSt7__cxx1112basic_stringIcSt11char_traitsIcESaIcEEE
libColPack.so.0:_ZN7ColPack25BipartiteGraphInputOutput31ReadHarwellBoeingBipartiteGraphENSt7__cxx1112basic_stringIcSt11char_traitsIcESaIcEEE
libColPack.so.0:_ZN7ColPack25BipartiteGraphInputOutput34BipartiteGraph2RowCompressedFormatEPPPjS1_S1_
libColPack.so.0:_ZN7ColPack25BipartiteGraphInputOutput34RowCompressedFormat2BipartiteGraphEPPjii
libColPack.so.0:_ZN7ColPack25BipartiteGraphInputOutput35BuildBPGraphFromRowCompressedFormatEPPjii
libColPack.so.0:_ZN7ColPack25BipartiteGraphInputOutput37ReadGenericSquareMatrixBipartiteGraphENSt7__cxx1112basic_stringIcSt11char_traitsIcESaIcEEE
libColPack.so.0:_ZN7ColPack25BipartiteGraphInputOutput5ClearEv
libColPack.so.0:_ZN7ColPack25BipartiteGraphInputOutputC1Ev
libColPack.so.0:_ZN7ColPack25BipartiteGraphInputOutputC2Ev
libColPack.so.0:_ZN7ColPack25BipartiteGraphInputOutputD0Ev
libColPack.so.0:_ZN7ColPack25BipartiteGraphInputOutputD1Ev
libColPack.so.0:_ZN7ColPack25BipartiteGraphInputOutputD2Ev
libColPack.so.0:_ZN7ColPack25BipartiteGraphVertexCover11CoverVertexERSt6vectorIiSaIiEE
libColPack.so.0:_ZN7ColPack25BipartiteGraphVertexCover11CoverVertexEv
libColPack.so.0:_ZN7ColPack25BipartiteGraphVertexCover18CoverMinimalVertexEv
libColPack.so.0:_ZN7ColPack25BipartiteGraphVertexCover22GetCoveredLeftVerticesERSt6vectorIiSaIiEE
libColPack.so.0:_ZN7ColPack25BipartiteGraphVertexCover23GetCoveredRightVerticesERSt6vectorIiSaIiEE
libColPack.so.0:_ZN7ColPack25BipartiteGraphVertexCover23GetIncludedLeftVerticesERSt6vectorIiSaIiEE
libColPack.so.0:_ZN7ColPack25BipartiteGraphVertexCover24GetIncludedRightVerticesERSt6vectorIiSaIiEE
libColPack.so.0:_ZN7ColPack25BipartiteGraphVertexCover26PrintBicoloringVertexCoverEv
libColPack.so.0:_ZN7ColPack25BipartiteGraphVertexCover5ClearEv
libColPack.so.0:_ZN7ColPack25BipartiteGraphVertexCover5ResetEv
libColPack.so.0:_ZN7ColPack25BipartiteGraphVertexCoverC1Ev
libColPack.so.0:_ZN7ColPack25BipartiteGraphVertexCoverC2Ev
libColPack.so.0:_ZN7ColPack25BipartiteGraphVertexCoverD0Ev
libColPack.so.0:_ZN7ColPack25BipartiteGraphVertexCoverD1Ev
libColPack.so.0:_ZN7ColPack25BipartiteGraphVertexCoverD2Ev
libColPack.so.0:_ZN7ColPack29BipartiteGraphPartialColoring10Seed_resetEv
libColPack.so.0:_ZN7ColPack29BipartiteGraphPartialColoring13GetSeedMatrixEPiS1_
libColPack.so.0:_ZN7ColPack29BipartiteGraphPartialColoring17GetLeftSeedMatrixEPiS1_
libColPack.so.0:_ZN7ColPack29BipartiteGraphPartialColoring18GetRightSeedMatrixEPiS1_
libColPack.so.0:_ZN7ColPack29BipartiteGraphPartialColoring18PrintPartialColorsEv
libColPack.so.0:_ZN7ColPack29BipartiteGraphPartialColoring19CheckVertexColoringENSt7__cxx1112basic_stringIcSt11char_traitsIcESaIcEEE
libColPack.so.0:_ZN7ColPack29BipartiteGraphPartialColoring19GetLeftVertexColorsERSt6vectorIiSaIiEE
libColPack.so.0:_ZN7ColPack29BipartiteGraphPartialColoring19GetVertexColorCountEv
libColPack.so.0:_ZN7ColPack29BipartiteGraphPartialColoring20GetRightVertexColorsERSt6vectorIiSaIiEE
libColPack.so.0:_ZN7ColPack29BipartiteGraphPartialColoring21GetVertexColoringTimeEv
libColPack.so.0:_ZN7ColPack29BipartiteGraphPartialColoring21PrintRowPartialColorsEv
libColPack.so.0:_ZN7ColPack29BipartiteGraphPartialColoring22GetVertexPartialColorsERSt6vectorIiSaIiEE
libColPack.so.0:_ZN7ColPack29BipartiteGraphPartialColoring23GetLeftVertexColorCountEv
libColPack.so.0:_ZN7ColPack29BipartiteGraphPartialColoring23GetSeedMatrix_unmanagedEPiS1_
libColPack.so.0:_ZN7ColPack29BipartiteGraphPartialColoring24GetRightVertexColorCountEv
libColPack.so.0:_ZN7ColPack29BipartiteGraphPartialColoring24GetVertexColoringVariantB5cxx11Ev
libColPack.so.0:_ZN7ColPack29BipartiteGraphPartialColoring24PrintColumnPartialColorsEv
libColPack.so.0:_ZN7ColPack29BipartiteGraphPartialColoring24SetVertexColoringVariantENSt7__cxx1112basic_stringIcSt11char_traitsIcESaIcEEE
libColPack.so.0:_ZN7ColPack29BipartiteGraphPartialColoring27CalculateVertexColorClassesEv
libColPack.so.0:_ZN7ColPack29BipartiteGraphPartialColoring27GetLeftSeedMatrix_unmanagedEPiS1_
libColPack.so.0:_ZN7ColPack29BipartiteGraphPartialColoring27PrintPartialColoringMetricsEv
libColPack.so.0:_ZN7ColPack29BipartiteGraphPartialColoring28GetRightSeedMatrix_unmanagedEPiS1_
libColPack.so.0:_ZN7ColPack29BipartiteGraphPartialColoring29PartialDistanceTwoRowColoringEv
libColPack.so.0:_ZN7ColPack29BipartiteGraphPartialColoring30PrintRowPartialColoringMetricsEv
libColPack.so.0:_ZN7ColPack29BipartiteGraphPartialColoring30PrintVertexPartialColorClassesEv
libColPack.so.0:_ZN7ColPack29BipartiteGraphPartialColoring31CheckPartialDistanceTwoColoringEv
libColPack.so.0:_ZN7ColPack29BipartiteGraphPartialColoring32PartialDistanceTwoColumnColoringEv
libColPack.so.0:_ZN7ColPack29BipartiteGraphPartialColoring33PartialDistanceTwoRowColoring_OMPEv
libColPack.so.0:_ZN7ColPack29BipartiteGraphPartialColoring33PrintColumnPartialColoringMetricsEv
libColPack.so.0:_ZN7ColPack29BipartiteGraphPartialColoring34CheckPartialDistanceTwoRowColoringEv
libColPack.so.0:_ZN7ColPack29BipartiteGraphPartialColoring36PartialDistanceTwoColumnColoring_OMPEv
libColPack.so.0:_ZN7ColPack29BipartiteGraphPartialColoring36PartialDistanceTwoRowColoring_serialEv
libColPack.so.0:_ZN7ColPack29BipartiteGraphPartialColoring37CheckPartialDistanceTwoColumnColoringEv
libColPack.so.0:_ZN7ColPack29BipartiteGraphPartialColoring39PartialDistanceTwoColumnColoring_serialEv
libColPack.so.0:_ZN7ColPack29BipartiteGraphPartialColoring5ClearEv
libColPack.so.0:_ZN7ColPack29BipartiteGraphPartialColoring5ResetEv
libColPack.so.0:_ZN7ColPack29BipartiteGraphPartialColoring9Seed_initEv
libColPack.so.0:_ZN7ColPack29BipartiteGraphPartialColoringC1Ev
libColPack.so.0:_ZN7ColPack29BipartiteGraphPartialColoringC2Ev
libColPack.so.0:_ZN7ColPack29BipartiteGraphPartialColoringD0Ev
libColPack.so.0:_ZN7ColPack29BipartiteGraphPartialColoringD1Ev
libColPack.so.0:_ZN7ColPack29BipartiteGraphPartialColoringD2Ev
libColPack.so.0:_ZN7ColPack29BipartiteGraphPartialOrdering13OrderVerticesENSt7__cxx1112basic_stringIcSt11char_traitsIcESaIcEEES6_
libColPack.so.0:_ZN7ColPack29BipartiteGraphPartialOrdering17RowRandomOrderingEv
libColPack.so.0:_ZN7ColPack29BipartiteGraphPartialOrdering18GetOrderedVerticesERSt6vectorIiSaIiEE
libColPack.so.0:_ZN7ColPack29BipartiteGraphPartialOrdering18RowNaturalOrderingEv
libColPack.so.0:_ZN7ColPack29BipartiteGraphPartialOrdering19CheckVertexOrderingENSt7__cxx1112basic_stringIcSt11char_traitsIcESaIcEEE
libColPack.so.0:_ZN7ColPack29BipartiteGraphPartialOrdering19PrintVertexOrderingEv
libColPack.so.0:_ZN7ColPack29BipartiteGraphPartialOrdering20ColumnRandomOrderingEv
libColPack.so.0:_ZN7ColPack29BipartiteGraphPartialOrdering21ColumnNaturalOrderingEv
libColPack.so.0:_ZN7ColPack29BipartiteGraphPartialOrdering21GetVertexOrderingTimeEv
libColPack.so.0:_ZN7ColPack29BipartiteGraphPartialOrdering23RowLargestFirstOrderingEv
libColPack.so.0:_ZN7ColPack29BipartiteGraphPartialOrdering23RowSmallestLastOrderingEv
libColPack.so.0:_ZN7ColPack29BipartiteGraphPartialOrdering24GetVertexOrderingVariantB5cxx11Ev
libColPack.so.0:_ZN7ColPack29BipartiteGraphPartialOrdering26ColumnLargestFirstOrderingEv
libColPack.so.0:_ZN7ColPack29BipartiteGraphPartialOrdering26ColumnSmallestLastOrderingEv
libColPack.so.0:_ZN7ColPack29BipartiteGraphPartialOrdering26RowIncidenceDegreeOrderingEv
libColPack.so.0:_ZN7ColPack29BipartiteGraphPartialOrdering27RowSmallestLastOrdering_OMPEv
libColPack.so.0:_ZN7ColPack29BipartiteGraphPartialOrdering29ColumnIncidenceDegreeOrderingEv
libColPack.so.0:_ZN7ColPack29BipartiteGraphPartialOrdering30ColumnSmallestLastOrdering_OMPEv
libColPack.so.0:_ZN7ColPack29BipartiteGraphPartialOrdering30RowDynamicLargestFirstOrderingEv
libColPack.so.0:_ZN7ColPack29BipartiteGraphPartialOrdering30RowSmallestLastOrdering_serialEv
libColPack.so.0:_ZN7ColPack29BipartiteGraphPartialOrdering33ColumnDynamicLargestFirstOrderingEv
libColPack.so.0:_ZN7ColPack29BipartiteGraphPartialOrdering33ColumnSmallestLastOrdering_serialEv
libColPack.so.0:_ZN7ColPack29BipartiteGraphPartialOrdering5ClearEv
libColPack.so.0:_ZN7ColPack29BipartiteGraphPartialOrdering5ResetEv
libColPack.so.0:_ZN7ColPack29BipartiteGraphPartialOrderingC1Ev
libColPack.so.0:_ZN7ColPack29BipartiteGraphPartialOrderingC2Ev
libColPack.so.0:_ZN7ColPack29BipartiteGraphPartialOrderingD0Ev
libColPack.so.0:_ZN7ColPack29BipartiteGraphPartialOrderingD1Ev
libColPack.so.0:_ZN7ColPack29BipartiteGraphPartialOrderingD2Ev
libColPack.so.0:_ZN7ColPack33BipartiteGraphBicoloringInterface10BicoloringENSt7__cxx1112basic_stringIcSt11char_traitsIcESaIcEEES6_
libColPack.so.0:_ZN7ColPack33BipartiteGraphBicoloringInterface17GetLeftSeedMatrixEPiS1_
libColPack.so.0:_ZN7ColPack33BipartiteGraphBicoloringInterface18GetOrderedVerticesERSt6vectorIiSaIiEE
libColPack.so.0:_ZN7ColPack33BipartiteGraphBicoloringInterface18GetRightSeedMatrixEPiS1_
libColPack.so.0:_ZN7ColPack33BipartiteGraphBicoloringInterface20GenerateSeedJacobianEPPPdPiS4_S3_S4_S4_NSt7__cxx1112basic_stringIcSt11char_traitsIcESaIcEEESA_
libColPack.so.0:_ZN7ColPack33BipartiteGraphBicoloringInterface30GenerateSeedJacobian_unmanagedEPPPdPiS4_S3_S4_S4_NSt7__cxx1112basic_stringIcSt11char_traitsIcESaIcEEESA_
libColPack.so.0:_ZN7ColPack33BipartiteGraphBicoloringInterface5ClearEv
libColPack.so.0:_ZN7ColPack33BipartiteGraphBicoloringInterface5ResetEv
libColPack.so.0:_ZN7ColPack33BipartiteGraphBicoloringInterfaceC1Eiz
libColPack.so.0:_ZN7ColPack33BipartiteGraphBicoloringInterfaceC2Eiz
libColPack.so.0:_ZN7ColPack33BipartiteGraphBicoloringInterfaceD0Ev
libColPack.so.0:_ZN7ColPack33BipartiteGraphBicoloringInterfaceD1Ev
libColPack.so.0:_ZN7ColPack33BipartiteGraphBicoloringInterfaceD2Ev
libColPack.so.0:_ZN7ColPack38BipartiteGraphPartialColoringInterface13GetSeedMatrixEPiS1_
libColPack.so.0:_ZN7ColPack38BipartiteGraphPartialColoringInterface18GetOrderedVerticesERSt6vectorIiSaIiEE
libColPack.so.0:_ZN7ColPack38BipartiteGraphPartialColoringInterface20GenerateSeedJacobianEPPPdPiS4_NSt7__cxx1112basic_stringIcSt11char_traitsIcESaIcEEESA_
libColPack.so.0:_ZN7ColPack38BipartiteGraphPartialColoringInterface26PartialDistanceTwoColoringENSt7__cxx1112basic_stringIcSt11char_traitsIcESaIcEEES6_
libColPack.so.0:_ZN7ColPack38BipartiteGraphPartialColoringInterface30GenerateSeedJacobian_unmanagedEPPPdPiS4_NSt7__cxx1112basic_stringIcSt11char_traitsIcESaIcEEESA_
libColPack.so.0:_ZN7ColPack38BipartiteGraphPartialColoringInterface5ClearEv
libColPack.so.0:_ZN7ColPack38BipartiteGraphPartialColoringInterface5ResetEv
libColPack.so.0:_ZN7ColPack38BipartiteGraphPartialColoringInterfaceC1Eiz
libColPack.so.0:_ZN7ColPack38BipartiteGraphPartialColoringInterfaceC2Eiz
libColPack.so.0:_ZN7ColPack38BipartiteGraphPartialColoringInterfaceD0Ev
libColPack.so.0:_ZN7ColPack38BipartiteGraphPartialColoringInterfaceD1Ev
libColPack.so.0:_ZN7ColPack38BipartiteGraphPartialColoringInterfaceD2Ev
libColPack.so.0:_ZN7ColPack4File16SetFileExtensionENSt7__cxx1112basic_stringIcSt11char_traitsIcESaIcEEE
libColPack.so.0:_ZN7ColPack4File5ParseENSt7__cxx1112basic_stringIcSt11char_traitsIcESaIcEEE
libColPack.so.0:_ZN7ColPack4File7SetNameENSt7__cxx1112basic_stringIcSt11char_traitsIcESaIcEEE
libColPack.so.0:_ZN7ColPack4File7SetPathENSt7__cxx1112basic_stringIcSt11char_traitsIcESaIcEEE
libColPack.so.0:_ZN7ColPack4FileC1ENSt7__cxx1112basic_stringIcSt11char_traitsIcESaIcEEE
libColPack.so.0:_ZN7ColPack4FileC1Ev
libColPack.so.0:_ZN7ColPack4FileC2ENSt7__cxx1112basic_stringIcSt11char_traitsIcESaIcEEE
libColPack.so.0:_ZN7ColPack4FileC2Ev
libColPack.so.0:_ZN7ColPack5Timer11GetWallTimeEv
libColPack.so.0:_ZN7ColPack5Timer16GetProcessorTimeEv
libColPack.so.0:_ZN7ColPack5Timer20GetUserProcessorTimeEv
libColPack.so.0:_ZN7ColPack5Timer22GetSystemProcessorTimeEv
libColPack.so.0:_ZN7ColPack5Timer4StopEv
libColPack.so.0:_ZN7ColPack5Timer5StartEv
libColPack.so.0:_ZN7ColPack5TimerC1Ev
libColPack.so.0:_ZN7ColPack5TimerC2Ev
libColPack.so.0:_ZN7ColPack5TimerD1Ev
libColPack.so.0:_ZN7ColPack5TimerD2Ev
libColPack.so.0:_ZN7ColPack8CoutLock3setEv
libColPack.so.0:_ZN7ColPack8CoutLock5unsetEv
libColPack.so.0:_ZN7ColPack9GraphCore12GetEdgeCountEv
libColPack.so.0:_ZN7ColPack9GraphCore12GetInputFileB5cxx11Ev
libColPack.so.0:_ZN7ColPack9GraphCore13AreD2NeighborEii
libColPack.so.0:_ZN7ColPack9GraphCore13GetD1NeighborEiRSt6vectorIiSaIiEEi
libColPack.so.0:_ZN7ColPack9GraphCore14GetVertexCountEv
libColPack.so.0:_ZN7ColPack9GraphCore15GetDisjointSetsERNS_12DisjointSetsE
libColPack.so.0:_ZN7ColPack9GraphCore16GetVertexEdgeMapERSt3mapIiS1_IiiSt4lessIiESaISt4pairIKiiEEES3_SaIS4_IS5_S8_EEE
libColPack.so.0:_ZN7ColPack9GraphCore21PrintVertexD1NeighborEii
libColPack.so.0:_ZN7ColPack9GraphCore21PrintVertexD2NeighborEi
libColPack.so.0:_ZN7ColPack9GraphCore22GetAverageVertexDegreeEv
libColPack.so.0:_ZN7ColPack9GraphCore22GetMaximumVertexDegreeEv
libColPack.so.0:_ZN7ColPack9GraphCore22GetMinimumVertexDegreeEv
libColPack.so.0:_ZN7ColPack9GraphCore5ClearEv
libColPack.so.0:_ZNK7ColPack15StringTokenizer14GetInputStringB5cxx11Ev
libColPack.so.0:_ZNK7ColPack15StringTokenizer18GetDelimiterStringB5cxx11Ev
libColPack.so.0:_ZNK7ColPack18BipartiteGraphCore14GetRowVerticesERSt6vectorIiSaIiEE
libColPack.so.0:_ZNK7ColPack18BipartiteGraphCore15GetLeftVerticesERSt6vectorIiSaIiEE
libColPack.so.0:_ZNK7ColPack18BipartiteGraphCore16GetRightVerticesERSt6vectorIiSaIiEE
libColPack.so.0:_ZNK7ColPack18BipartiteGraphCore17GetColumnVerticesERSt6vectorIiSaIiEE
libColPack.so.0:_ZNK7ColPack18BipartiteGraphCore8GetEdgesERSt6vectorIiSaIiEE
libColPack.so.0:_ZNK7ColPack18BipartiteGraphCoreeqERKS0_
libColPack.so.0:_ZNK7ColPack4File11GetFullNameB5cxx11Ev
libColPack.so.0:_ZNK7ColPack4File16GetFileExtensionB5cxx11Ev
libColPack.so.0:_ZNK7ColPack4File7GetNameB5cxx11Ev
libColPack.so.0:_ZNK7ColPack4File7GetPathB5cxx11Ev
libColPack.so.0:_ZNK7ColPack9GraphCore11GetVerticesERSt6vectorIiSaIiEE
libColPack.so.0:_ZNK7ColPack9GraphCore8GetEdgesERSt6vectorIiSaIiEE
libColPack.so.0:_ZNK7ColPack9GraphCore8areEqualERKS0_b
libColPack.so.0:_ZNK7ColPack9GraphCore9GetValuesERSt6vectorIdSaIdEE
libColPack.so.0:_ZNK7ColPack9GraphCoreeqERKS0_
